target datalayout = "e-m:e-p270:32:32-p271:32:32-p272:64:64-i64:64-i128:128-f80:128-n8:16:32:64-S128"
target triple = "x86_64-pc-linux-gnu"

%struct.stat = type { i64, i64, i64, i32, i32, i32, i32, i64, i64, i64, i64, %struct.timespec, %struct.timespec, %struct.timespec, [3 x i64] }
%struct.timespec = type { i64, i64 }
%struct._archiveHandle = type { %struct.Archive, i32, ptr, ptr, i64, i64, i32, %struct.sqlparseInfo, i64, i32, ptr, i64, i64, i64, ptr, ptr, ptr, ptr, ptr, ptr, ptr, ptr, ptr, ptr, ptr, ptr, ptr, ptr, ptr, ptr, ptr, ptr, ptr, ptr, ptr, ptr, ptr, ptr, ptr, ptr, ptr, ptr, ptr, ptr, i32, i32, i8, i32, i8, i32, ptr, ptr, ptr, ptr, i32, i32, ptr, ptr, ptr, %struct.pg_compress_specification, i8, i32, i32, ptr, ptr, ptr, ptr, ptr, i32, ptr, i64, i64, i32, i32, i32, i32, ptr, ptr }
%struct.Archive = type { ptr, ptr, i32, ptr, i32, i8, i32, i32, i32, ptr, i32, i8, ptr, ptr, i8, i32, ptr }
%struct.sqlparseInfo = type { i32, i8, ptr }
%struct.pg_compress_specification = type { i32, i32, i32, i32, i8, ptr }
%struct.lclContext = type { ptr, ptr, ptr, ptr }
%struct.dirent = type { i64, i64, i16, i8, [256 x i8] }

@.str = private unnamed_addr constant [1 x i8] zeroinitializer, align 1
@.str.1 = private unnamed_addr constant [30 x i8] c"no output directory specified\00", align 1
@.str.2 = private unnamed_addr constant [2 x i8] c".\00", align 1
@.str.3 = private unnamed_addr constant [3 x i8] c"..\00", align 1
@.str.4 = private unnamed_addr constant [34 x i8] c"could not read directory \22%s\22: %m\00", align 1
@.str.5 = private unnamed_addr constant [35 x i8] c"could not close directory \22%s\22: %m\00", align 1
@.str.6 = private unnamed_addr constant [36 x i8] c"could not create directory \22%s\22: %m\00", align 1
@.str.7 = private unnamed_addr constant [8 x i8] c"toc.dat\00", align 1
@.str.8 = private unnamed_addr constant [2 x i8] c"r\00", align 1
@.str.9 = private unnamed_addr constant [35 x i8] c"could not open input file \22%s\22: %m\00", align 1
@.str.10 = private unnamed_addr constant [29 x i8] c"could not close TOC file: %m\00", align 1

; Function Attrs: nounwind uwtable
define dso_local void @InitArchiveFmt_Directory(ptr noundef %0) #0 {
  %2 = alloca ptr, align 8
  %3 = alloca ptr, align 8
  %4 = alloca %struct.stat, align 8
  %5 = alloca i8, align 1
  %6 = alloca ptr, align 8
  %7 = alloca ptr, align 8
  %8 = alloca [1024 x i8], align 16
  %9 = alloca ptr, align 8
  store ptr %0, ptr %2, align 8
  call void @llvm.lifetime.start.p0(i64 8, ptr %3) #9
  %10 = load ptr, ptr %2, align 8
  %11 = getelementptr inbounds nuw %struct._archiveHandle, ptr %10, i32 0, i32 14
  store ptr @_ArchiveEntry, ptr %11, align 8
  %12 = load ptr, ptr %2, align 8
  %13 = getelementptr inbounds nuw %struct._archiveHandle, ptr %12, i32 0, i32 15
  store ptr @_StartData, ptr %13, align 8
  %14 = load ptr, ptr %2, align 8
  %15 = getelementptr inbounds nuw %struct._archiveHandle, ptr %14, i32 0, i32 16
  store ptr @_WriteData, ptr %15, align 8
  %16 = load ptr, ptr %2, align 8
  %17 = getelementptr inbounds nuw %struct._archiveHandle, ptr %16, i32 0, i32 17
  store ptr @_EndData, ptr %17, align 8
  %18 = load ptr, ptr %2, align 8
  %19 = getelementptr inbounds nuw %struct._archiveHandle, ptr %18, i32 0, i32 18
  store ptr @_WriteByte, ptr %19, align 8
  %20 = load ptr, ptr %2, align 8
  %21 = getelementptr inbounds nuw %struct._archiveHandle, ptr %20, i32 0, i32 19
  store ptr @_ReadByte, ptr %21, align 8
  %22 = load ptr, ptr %2, align 8
  %23 = getelementptr inbounds nuw %struct._archiveHandle, ptr %22, i32 0, i32 20
  store ptr @_WriteBuf, ptr %23, align 8
  %24 = load ptr, ptr %2, align 8
  %25 = getelementptr inbounds nuw %struct._archiveHandle, ptr %24, i32 0, i32 21
  store ptr @_ReadBuf, ptr %25, align 8
  %26 = load ptr, ptr %2, align 8
  %27 = getelementptr inbounds nuw %struct._archiveHandle, ptr %26, i32 0, i32 22
  store ptr @_CloseArchive, ptr %27, align 8
  %28 = load ptr, ptr %2, align 8
  %29 = getelementptr inbounds nuw %struct._archiveHandle, ptr %28, i32 0, i32 23
  store ptr @_ReopenArchive, ptr %29, align 8
  %30 = load ptr, ptr %2, align 8
  %31 = getelementptr inbounds nuw %struct._archiveHandle, ptr %30, i32 0, i32 27
  store ptr @_PrintTocData, ptr %31, align 8
  %32 = load ptr, ptr %2, align 8
  %33 = getelementptr inbounds nuw %struct._archiveHandle, ptr %32, i32 0, i32 25
  store ptr @_ReadExtraToc, ptr %33, align 8
  %34 = load ptr, ptr %2, align 8
  %35 = getelementptr inbounds nuw %struct._archiveHandle, ptr %34, i32 0, i32 24
  store ptr @_WriteExtraToc, ptr %35, align 8
  %36 = load ptr, ptr %2, align 8
  %37 = getelementptr inbounds nuw %struct._archiveHandle, ptr %36, i32 0, i32 26
  store ptr @_PrintExtraToc, ptr %37, align 8
  %38 = load ptr, ptr %2, align 8
  %39 = getelementptr inbounds nuw %struct._archiveHandle, ptr %38, i32 0, i32 28
  store ptr @_StartLOs, ptr %39, align 8
  %40 = load ptr, ptr %2, align 8
  %41 = getelementptr inbounds nuw %struct._archiveHandle, ptr %40, i32 0, i32 30
  store ptr @_StartLO, ptr %41, align 8
  %42 = load ptr, ptr %2, align 8
  %43 = getelementptr inbounds nuw %struct._archiveHandle, ptr %42, i32 0, i32 31
  store ptr @_EndLO, ptr %43, align 8
  %44 = load ptr, ptr %2, align 8
  %45 = getelementptr inbounds nuw %struct._archiveHandle, ptr %44, i32 0, i32 29
  store ptr @_EndLOs, ptr %45, align 8
  %46 = load ptr, ptr %2, align 8
  %47 = getelementptr inbounds nuw %struct._archiveHandle, ptr %46, i32 0, i32 35
  store ptr @_PrepParallelRestore, ptr %47, align 8
  %48 = load ptr, ptr %2, align 8
  %49 = getelementptr inbounds nuw %struct._archiveHandle, ptr %48, i32 0, i32 36
  store ptr @_Clone, ptr %49, align 8
  %50 = load ptr, ptr %2, align 8
  %51 = getelementptr inbounds nuw %struct._archiveHandle, ptr %50, i32 0, i32 37
  store ptr @_DeClone, ptr %51, align 8
  %52 = load ptr, ptr %2, align 8
  %53 = getelementptr inbounds nuw %struct._archiveHandle, ptr %52, i32 0, i32 34
  store ptr @_WorkerJobRestoreDirectory, ptr %53, align 8
  %54 = load ptr, ptr %2, align 8
  %55 = getelementptr inbounds nuw %struct._archiveHandle, ptr %54, i32 0, i32 33
  store ptr @_WorkerJobDumpDirectory, ptr %55, align 8
  %56 = call ptr @pg_malloc0(i64 noundef 32)
  store ptr %56, ptr %3, align 8
  %57 = load ptr, ptr %3, align 8
  %58 = load ptr, ptr %2, align 8
  %59 = getelementptr inbounds nuw %struct._archiveHandle, ptr %58, i32 0, i32 63
  store ptr %57, ptr %59, align 8
  %60 = load ptr, ptr %3, align 8
  %61 = getelementptr inbounds nuw %struct.lclContext, ptr %60, i32 0, i32 1
  store ptr null, ptr %61, align 8
  %62 = load ptr, ptr %3, align 8
  %63 = getelementptr inbounds nuw %struct.lclContext, ptr %62, i32 0, i32 2
  store ptr null, ptr %63, align 8
  %64 = load ptr, ptr %2, align 8
  %65 = getelementptr inbounds nuw %struct._archiveHandle, ptr %64, i32 0, i32 50
  %66 = load ptr, ptr %65, align 8
  %67 = icmp ne ptr %66, null
  br i1 %67, label %68, label %74

68:                                               ; preds = %1
  %69 = load ptr, ptr %2, align 8
  %70 = getelementptr inbounds nuw %struct._archiveHandle, ptr %69, i32 0, i32 50
  %71 = load ptr, ptr %70, align 8
  %72 = call i32 @strcmp(ptr noundef %71, ptr noundef @.str) #10
  %73 = icmp eq i32 %72, 0
  br i1 %73, label %74, label %78

74:                                               ; preds = %68, %1
  br label %75

75:                                               ; preds = %74
  call void (i32, i32, ptr, ...) @pg_log_generic(i32 noundef 4, i32 noundef 0, ptr noundef @.str.1)
  call void @exit_nicely(i32 noundef 1) #11
  unreachable

76:                                               ; No predecessors!
  br label %77

77:                                               ; preds = %76
  br label %78

78:                                               ; preds = %77, %68
  %79 = load ptr, ptr %2, align 8
  %80 = getelementptr inbounds nuw %struct._archiveHandle, ptr %79, i32 0, i32 50
  %81 = load ptr, ptr %80, align 8
  %82 = load ptr, ptr %3, align 8
  %83 = getelementptr inbounds nuw %struct.lclContext, ptr %82, i32 0, i32 0
  store ptr %81, ptr %83, align 8
  %84 = load ptr, ptr %2, align 8
  %85 = getelementptr inbounds nuw %struct._archiveHandle, ptr %84, i32 0, i32 62
  %86 = load i32, ptr %85, align 8
  %87 = icmp eq i32 %86, 1
  br i1 %87, label %88, label %167

88:                                               ; preds = %78
  call void @llvm.lifetime.start.p0(i64 144, ptr %4) #9
  call void @llvm.lifetime.start.p0(i64 1, ptr %5) #9
  store i8 0, ptr %5, align 1
  %89 = load ptr, ptr %3, align 8
  %90 = getelementptr inbounds nuw %struct.lclContext, ptr %89, i32 0, i32 0
  %91 = load ptr, ptr %90, align 8
  %92 = call i32 @stat(ptr noundef %91, ptr noundef %4) #9
  %93 = icmp eq i32 %92, 0
  br i1 %93, label %94, label %150

94:                                               ; preds = %88
  %95 = getelementptr inbounds nuw %struct.stat, ptr %4, i32 0, i32 3
  %96 = load i32, ptr %95, align 8
  %97 = and i32 %96, 61440
  %98 = icmp eq i32 %97, 16384
  br i1 %98, label %99, label %150

99:                                               ; preds = %94
  call void @llvm.lifetime.start.p0(i64 8, ptr %6) #9
  %100 = load ptr, ptr %3, align 8
  %101 = getelementptr inbounds nuw %struct.lclContext, ptr %100, i32 0, i32 0
  %102 = load ptr, ptr %101, align 8
  %103 = call ptr @opendir(ptr noundef %102)
  store ptr %103, ptr %6, align 8
  %104 = load ptr, ptr %6, align 8
  %105 = icmp ne ptr %104, null
  br i1 %105, label %106, label %149

106:                                              ; preds = %99
  call void @llvm.lifetime.start.p0(i64 8, ptr %7) #9
  store i8 1, ptr %5, align 1
  br label %107

107:                                              ; preds = %125, %106
  %108 = call ptr @__errno_location() #12
  store i32 0, ptr %108, align 4
  %109 = load ptr, ptr %6, align 8
  %110 = call ptr @readdir(ptr noundef %109)
  store ptr %110, ptr %7, align 8
  %111 = icmp ne ptr %110, null
  br i1 %111, label %112, label %126

112:                                              ; preds = %107
  %113 = load ptr, ptr %7, align 8
  %114 = getelementptr inbounds nuw %struct.dirent, ptr %113, i32 0, i32 4
  %115 = getelementptr inbounds [256 x i8], ptr %114, i64 0, i64 0
  %116 = call i32 @strcmp(ptr noundef %115, ptr noundef @.str.2) #10
  %117 = icmp ne i32 %116, 0
  br i1 %117, label %118, label %125

118:                                              ; preds = %112
  %119 = load ptr, ptr %7, align 8
  %120 = getelementptr inbounds nuw %struct.dirent, ptr %119, i32 0, i32 4
  %121 = getelementptr inbounds [256 x i8], ptr %120, i64 0, i64 0
  %122 = call i32 @strcmp(ptr noundef %121, ptr noundef @.str.3) #10
  %123 = icmp ne i32 %122, 0
  br i1 %123, label %124, label %125

124:                                              ; preds = %118
  store i8 0, ptr %5, align 1
  br label %126

125:                                              ; preds = %118, %112
  br label %107, !llvm.loop !4

126:                                              ; preds = %124, %107
  %127 = call ptr @__errno_location() #12
  %128 = load i32, ptr %127, align 4
  %129 = icmp ne i32 %128, 0
  br i1 %129, label %130, label %137

130:                                              ; preds = %126
  br label %131

131:                                              ; preds = %130
  %132 = load ptr, ptr %3, align 8
  %133 = getelementptr inbounds nuw %struct.lclContext, ptr %132, i32 0, i32 0
  %134 = load ptr, ptr %133, align 8
  call void (i32, i32, ptr, ...) @pg_log_generic(i32 noundef 4, i32 noundef 0, ptr noundef @.str.4, ptr noundef %134)
  call void @exit_nicely(i32 noundef 1) #11
  unreachable

135:                                              ; No predecessors!
  br label %136

136:                                              ; preds = %135
  br label %137

137:                                              ; preds = %136, %126
  %138 = load ptr, ptr %6, align 8
  %139 = call i32 @closedir(ptr noundef %138)
  %140 = icmp ne i32 %139, 0
  br i1 %140, label %141, label %148

141:                                              ; preds = %137
  br label %142

142:                                              ; preds = %141
  %143 = load ptr, ptr %3, align 8
  %144 = getelementptr inbounds nuw %struct.lclContext, ptr %143, i32 0, i32 0
  %145 = load ptr, ptr %144, align 8
  call void (i32, i32, ptr, ...) @pg_log_generic(i32 noundef 4, i32 noundef 0, ptr noundef @.str.5, ptr noundef %145)
  call void @exit_nicely(i32 noundef 1) #11
  unreachable

146:                                              ; No predecessors!
  br label %147

147:                                              ; preds = %146
  br label %148

148:                                              ; preds = %147, %137
  call void @llvm.lifetime.end.p0(i64 8, ptr %7) #9
  br label %149

149:                                              ; preds = %148, %99
  call void @llvm.lifetime.end.p0(i64 8, ptr %6) #9
  br label %150

150:                                              ; preds = %149, %94, %88
  %151 = load i8, ptr %5, align 1, !range !6, !noundef !7
  %152 = trunc i8 %151 to i1
  br i1 %152, label %166, label %153

153:                                              ; preds = %150
  %154 = load ptr, ptr %3, align 8
  %155 = getelementptr inbounds nuw %struct.lclContext, ptr %154, i32 0, i32 0
  %156 = load ptr, ptr %155, align 8
  %157 = call i32 @mkdir(ptr noundef %156, i32 noundef 448) #9
  %158 = icmp slt i32 %157, 0
  br i1 %158, label %159, label %166

159:                                              ; preds = %153
  br label %160

160:                                              ; preds = %159
  %161 = load ptr, ptr %3, align 8
  %162 = getelementptr inbounds nuw %struct.lclContext, ptr %161, i32 0, i32 0
  %163 = load ptr, ptr %162, align 8
  call void (i32, i32, ptr, ...) @pg_log_generic(i32 noundef 4, i32 noundef 0, ptr noundef @.str.6, ptr noundef %163)
  call void @exit_nicely(i32 noundef 1) #11
  unreachable

164:                                              ; No predecessors!
  br label %165

165:                                              ; preds = %164
  br label %166

166:                                              ; preds = %165, %153, %150
  call void @llvm.lifetime.end.p0(i64 1, ptr %5) #9
  call void @llvm.lifetime.end.p0(i64 144, ptr %4) #9
  br label %198

167:                                              ; preds = %78
  call void @llvm.lifetime.start.p0(i64 1024, ptr %8) #9
  call void @llvm.lifetime.start.p0(i64 8, ptr %9) #9
  %168 = load ptr, ptr %2, align 8
  %169 = getelementptr inbounds [1024 x i8], ptr %8, i64 0, i64 0
  call void @setFilePath(ptr noundef %168, ptr noundef %169, ptr noundef @.str.7)
  %170 = getelementptr inbounds [1024 x i8], ptr %8, i64 0, i64 0
  %171 = call ptr @InitDiscoverCompressFileHandle(ptr noundef %170, ptr noundef @.str.8)
  store ptr %171, ptr %9, align 8
  %172 = load ptr, ptr %9, align 8
  %173 = icmp eq ptr %172, null
  br i1 %173, label %174, label %179

174:                                              ; preds = %167
  br label %175

175:                                              ; preds = %174
  %176 = getelementptr inbounds [1024 x i8], ptr %8, i64 0, i64 0
  call void (i32, i32, ptr, ...) @pg_log_generic(i32 noundef 4, i32 noundef 0, ptr noundef @.str.9, ptr noundef %176)
  call void @exit_nicely(i32 noundef 1) #11
  unreachable

177:                                              ; No predecessors!
  br label %178

178:                                              ; preds = %177
  br label %179

179:                                              ; preds = %178, %167
  %180 = load ptr, ptr %9, align 8
  %181 = load ptr, ptr %3, align 8
  %182 = getelementptr inbounds nuw %struct.lclContext, ptr %181, i32 0, i32 1
  store ptr %180, ptr %182, align 8
  %183 = load ptr, ptr %2, align 8
  %184 = getelementptr inbounds nuw %struct._archiveHandle, ptr %183, i32 0, i32 6
  store i32 3, ptr %184, align 8
  %185 = load ptr, ptr %2, align 8
  call void @ReadHead(ptr noundef %185)
  %186 = load ptr, ptr %2, align 8
  %187 = getelementptr inbounds nuw %struct._archiveHandle, ptr %186, i32 0, i32 6
  store i32 5, ptr %187, align 8
  %188 = load ptr, ptr %2, align 8
  call void @ReadToc(ptr noundef %188)
  %189 = load ptr, ptr %9, align 8
  %190 = call zeroext i1 @EndCompressFileHandle(ptr noundef %189)
  br i1 %190, label %195, label %191

191:                                              ; preds = %179
  br label %192

192:                                              ; preds = %191
  call void (i32, i32, ptr, ...) @pg_log_generic(i32 noundef 4, i32 noundef 0, ptr noundef @.str.10)
  call void @exit_nicely(i32 noundef 1) #11
  unreachable

193:                                              ; No predecessors!
  br label %194

194:                                              ; preds = %193
  br label %195

195:                                              ; preds = %194, %179
  %196 = load ptr, ptr %3, align 8
  %197 = getelementptr inbounds nuw %struct.lclContext, ptr %196, i32 0, i32 1
  store ptr null, ptr %197, align 8
  call void @llvm.lifetime.end.p0(i64 8, ptr %9) #9
  call void @llvm.lifetime.end.p0(i64 1024, ptr %8) #9
  br label %198

198:                                              ; preds = %195, %166
  call void @llvm.lifetime.end.p0(i64 8, ptr %3) #9
  ret void
}