; Function Attrs: nounwind uwtable
define dso_local void @InitArchiveFmt_Directory(ptr noundef initializes((216, 360), (368, 408), (592, 600)) %0) local_unnamed_addr #0 {
  %2 = alloca %struct.stat, align 8
  %3 = alloca [1024 x i8], align 16
  %4 = getelementptr inbounds nuw i8, ptr %0, i64 216
  store ptr @_ArchiveEntry, ptr %4, align 8
  %5 = getelementptr inbounds nuw i8, ptr %0, i64 224
  store ptr @_StartData, ptr %5, align 8
  %6 = getelementptr inbounds nuw i8, ptr %0, i64 232
  store ptr @_WriteData, ptr %6, align 8
  %7 = getelementptr inbounds nuw i8, ptr %0, i64 240
  store ptr @_EndData, ptr %7, align 8
  %8 = getelementptr inbounds nuw i8, ptr %0, i64 248
  store ptr @_WriteByte, ptr %8, align 8
  %9 = getelementptr inbounds nuw i8, ptr %0, i64 256
  store ptr @_ReadByte, ptr %9, align 8
  %10 = getelementptr inbounds nuw i8, ptr %0, i64 264
  store ptr @_WriteBuf, ptr %10, align 8
  %11 = getelementptr inbounds nuw i8, ptr %0, i64 272
  store ptr @_ReadBuf, ptr %11, align 8
  %12 = getelementptr inbounds nuw i8, ptr %0, i64 280
  store ptr @_CloseArchive, ptr %12, align 8
  %13 = getelementptr inbounds nuw i8, ptr %0, i64 288
  store ptr @_ReopenArchive, ptr %13, align 8
  %14 = getelementptr inbounds nuw i8, ptr %0, i64 320
  store ptr @_PrintTocData, ptr %14, align 8
  %15 = getelementptr inbounds nuw i8, ptr %0, i64 304
  store ptr @_ReadExtraToc, ptr %15, align 8
  %16 = getelementptr inbounds nuw i8, ptr %0, i64 296
  store ptr @_WriteExtraToc, ptr %16, align 8
  %17 = getelementptr inbounds nuw i8, ptr %0, i64 312
  store ptr @_PrintExtraToc, ptr %17, align 8
  %18 = getelementptr inbounds nuw i8, ptr %0, i64 328
  store ptr @_StartLOs, ptr %18, align 8
  %19 = getelementptr inbounds nuw i8, ptr %0, i64 344
  store ptr @_StartLO, ptr %19, align 8
  %20 = getelementptr inbounds nuw i8, ptr %0, i64 352
  store ptr @_EndLO, ptr %20, align 8
  %21 = getelementptr inbounds nuw i8, ptr %0, i64 336
  store ptr @_EndLOs, ptr %21, align 8
  %22 = getelementptr inbounds nuw i8, ptr %0, i64 384
  store ptr @_PrepParallelRestore, ptr %22, align 8
  %23 = getelementptr inbounds nuw i8, ptr %0, i64 392
  store ptr @_Clone, ptr %23, align 8
  %24 = getelementptr inbounds nuw i8, ptr %0, i64 400
  store ptr @_DeClone, ptr %24, align 8
  %25 = getelementptr inbounds nuw i8, ptr %0, i64 376
  store ptr @_WorkerJobRestoreDirectory, ptr %25, align 8
  %26 = getelementptr inbounds nuw i8, ptr %0, i64 368
  store ptr @_WorkerJobDumpDirectory, ptr %26, align 8
  %27 = tail call ptr @pg_malloc0(i64 noundef 32) #14
  %28 = getelementptr inbounds nuw i8, ptr %0, i64 592
  store ptr %27, ptr %28, align 8
  %29 = getelementptr inbounds nuw i8, ptr %27, i64 8
  %30 = getelementptr inbounds nuw i8, ptr %0, i64 480
  tail call void @llvm.memset.p0.i64(ptr noundef nonnull align 8 dereferenceable(16) %29, i8 0, i64 16, i1 false)
  %31 = load ptr, ptr %30, align 8
  %.not = icmp eq ptr %31, null
  br i1 %.not, label %34, label %32

32:                                               ; preds = %1
  %strcmpload = load i8, ptr %31, align 1
  %33 = icmp eq i8 %strcmpload, 0
  br i1 %33, label %34, label %35

34:                                               ; preds = %1, %32
  tail call void (i32, i32, ptr, ...) @pg_log_generic(i32 noundef 4, i32 noundef 0, ptr noundef nonnull @.str.1) #14
  tail call void @exit_nicely(i32 noundef 1) #15
  unreachable

35:                                               ; preds = %32
  store ptr %31, ptr %27, align 8
  %36 = getelementptr inbounds nuw i8, ptr %0, i64 584
  %37 = load i32, ptr %36, align 8
  %38 = icmp eq i32 %37, 1
  br i1 %38, label %39, label %79

39:                                               ; preds = %35
  call void @llvm.lifetime.start.p0(i64 144, ptr nonnull %2) #14
  %40 = call i32 @stat(ptr noundef nonnull %31, ptr noundef nonnull %2) #14
  %41 = icmp eq i32 %40, 0
  br i1 %41, label %42, label %.critedge

42:                                               ; preds = %39
  %43 = getelementptr inbounds nuw i8, ptr %2, i64 24
  %44 = load i32, ptr %43, align 8
  %45 = and i32 %44, 61440
  %46 = icmp eq i32 %45, 16384
  br i1 %46, label %47, label %.critedge

47:                                               ; preds = %42
  %48 = load ptr, ptr %27, align 8
  %49 = tail call ptr @opendir(ptr noundef %48)
  %.not57 = icmp eq ptr %49, null
  br i1 %.not57, label %.critedge, label %.preheader

.preheader:                                       ; preds = %47
  %50 = tail call ptr @__errno_location() #16
  store i32 0, ptr %50, align 4
  %51 = tail call ptr @readdir(ptr noundef nonnull %49) #14
  %.not5867 = icmp eq ptr %51, null
  br i1 %.not5867, label %.tail63._crit_edge, label %sub_0

sub_0:                                            ; preds = %.preheader, %63
  %52 = phi ptr [ %64, %63 ], [ %51, %.preheader ]
  %53 = getelementptr inbounds nuw i8, ptr %52, i64 19
  %54 = load i8, ptr %53, align 1
  %.not72 = icmp eq i8 %54, 46
  br i1 %.not72, label %.tail, label %.tail63._crit_edge

.tail:                                            ; preds = %sub_0
  %55 = getelementptr inbounds nuw i8, ptr %52, i64 20
  %56 = load i8, ptr %55, align 1
  %57 = icmp eq i8 %56, 0
  br i1 %57, label %63, label %sub_165

sub_165:                                          ; preds = %.tail
  %58 = getelementptr inbounds nuw i8, ptr %52, i64 20
  %59 = load i8, ptr %58, align 1
  %.not74 = icmp eq i8 %59, 46
  br i1 %.not74, label %.tail63, label %.tail63._crit_edge

.tail63:                                          ; preds = %sub_165
  %60 = getelementptr inbounds nuw i8, ptr %52, i64 21
  %61 = load i8, ptr %60, align 1
  %62 = icmp eq i8 %61, 0
  br i1 %62, label %63, label %.tail63._crit_edge

63:                                               ; preds = %.tail63, %.tail
  store i32 0, ptr %50, align 4
  %64 = tail call ptr @readdir(ptr noundef nonnull %49) #14
  %.not58 = icmp eq ptr %64, null
  br i1 %.not58, label %.tail63._crit_edge, label %sub_0, !llvm.loop !4

.tail63._crit_edge:                               ; preds = %sub_0, %sub_165, %63, %.tail63, %.preheader
  %.not58.lcssa = phi i1 [ true, %.preheader ], [ false, %sub_0 ], [ false, %sub_165 ], [ false, %.tail63 ], [ true, %63 ]
  %65 = load i32, ptr %50, align 4
  %.not61 = icmp eq i32 %65, 0
  br i1 %.not61, label %68, label %66

66:                                               ; preds = %.tail63._crit_edge
  %67 = load ptr, ptr %27, align 8
  tail call void (i32, i32, ptr, ...) @pg_log_generic(i32 noundef 4, i32 noundef 0, ptr noundef nonnull @.str.4, ptr noundef %67) #14
  tail call void @exit_nicely(i32 noundef 1) #15
  unreachable

68:                                               ; preds = %.tail63._crit_edge
  %69 = tail call i32 @closedir(ptr noundef nonnull %49)
  %.not62 = icmp eq i32 %69, 0
  br i1 %.not62, label %72, label %70

70:                                               ; preds = %68
  %71 = load ptr, ptr %27, align 8
  tail call void (i32, i32, ptr, ...) @pg_log_generic(i32 noundef 4, i32 noundef 0, ptr noundef nonnull @.str.5, ptr noundef %71) #14
  tail call void @exit_nicely(i32 noundef 1) #15
  unreachable

72:                                               ; preds = %68
  br i1 %.not58.lcssa, label %78, label %.critedge

.critedge:                                        ; preds = %42, %39, %47, %72
  %73 = load ptr, ptr %27, align 8
  %74 = tail call i32 @mkdir(ptr noundef %73, i32 noundef 448) #14
  %75 = icmp slt i32 %74, 0
  br i1 %75, label %76, label %78

76:                                               ; preds = %.critedge
  %77 = load ptr, ptr %27, align 8
  tail call void (i32, i32, ptr, ...) @pg_log_generic(i32 noundef 4, i32 noundef 0, ptr noundef nonnull @.str.6, ptr noundef %77) #14
  tail call void @exit_nicely(i32 noundef 1) #15
  unreachable

78:                                               ; preds = %.critedge, %72
  call void @llvm.lifetime.end.p0(i64 144, ptr nonnull %2) #14
  br label %88

79:                                               ; preds = %35
  call void @llvm.lifetime.start.p0(i64 1024, ptr nonnull %3) #14
  %.val = load ptr, ptr %28, align 8
  %.val.val = load ptr, ptr %.val, align 8
  call fastcc void @setFilePath(ptr %.val.val, ptr noundef %3, ptr noundef nonnull @.str.7)
  %80 = call ptr @InitDiscoverCompressFileHandle(ptr noundef nonnull %3, ptr noundef nonnull @.str.8) #14
  %81 = icmp eq ptr %80, null
  br i1 %81, label %82, label %83

82:                                               ; preds = %79
  call void (i32, i32, ptr, ...) @pg_log_generic(i32 noundef 4, i32 noundef 0, ptr noundef nonnull @.str.9, ptr noundef nonnull %3) #14
  call void @exit_nicely(i32 noundef 1) #15
  unreachable

83:                                               ; preds = %79
  store ptr %80, ptr %29, align 8
  %84 = getelementptr inbounds nuw i8, ptr %0, i64 144
  store i32 3, ptr %84, align 8
  call void @ReadHead(ptr noundef nonnull %0) #14
  store i32 5, ptr %84, align 8
  call void @ReadToc(ptr noundef nonnull %0) #14
  %85 = call zeroext i1 @EndCompressFileHandle(ptr noundef nonnull %80) #14
  br i1 %85, label %87, label %86

86:                                               ; preds = %83
  call void (i32, i32, ptr, ...) @pg_log_generic(i32 noundef 4, i32 noundef 0, ptr noundef nonnull @.str.10) #14
  call void @exit_nicely(i32 noundef 1) #15
  unreachable

87:                                               ; preds = %83
  store ptr null, ptr %29, align 8
  call void @llvm.lifetime.end.p0(i64 1024, ptr nonnull %3) #14
  br label %88

88:                                               ; preds = %87, %78
  ret void
}